target datalayout = "e-m:e-p270:32:32-p271:32:32-p272:64:64-i64:64-i128:128-f80:128-n8:16:32:64-S128"
target triple = "x86_64-pc-linux-gnu"

%"class.icu_77::CollationWeights" = type { i32, [5 x i32], [5 x i32], [7 x %"struct.icu_77::CollationWeights::WeightRange"], i32, i32 }
%"struct.icu_77::CollationWeights::WeightRange" = type { i32, i32, i32, i32 }

; Function Attrs: inlinehint mustprogress nounwind uwtable
define linkonce_odr noundef i32 @_ZNK6icu_7716CollationWeights10countBytesEi(ptr noundef nonnull align 4 dereferenceable(164) %0, i32 noundef %1) #4 comdat align 2 {
  %3 = alloca ptr, align 8
  %4 = alloca i32, align 4
  store ptr %0, ptr %3, align 8, !tbaa !3
  store i32 %1, ptr %4, align 4, !tbaa !13
  %5 = load ptr, ptr %3, align 8
  %6 = getelementptr inbounds nuw %"class.icu_77::CollationWeights", ptr %5, i32 0, i32 2
  %7 = load i32, ptr %4, align 4, !tbaa !13
  %8 = sext i32 %7 to i64
  %9 = getelementptr inbounds [5 x i32], ptr %6, i64 0, i64 %8
  %10 = load i32, ptr %9, align 4, !tbaa !13
  %11 = getelementptr inbounds nuw %"class.icu_77::CollationWeights", ptr %5, i32 0, i32 1
  %12 = load i32, ptr %4, align 4, !tbaa !13
  %13 = sext i32 %12 to i64
  %14 = getelementptr inbounds [5 x i32], ptr %11, i64 0, i64 %13
  %15 = load i32, ptr %14, align 4, !tbaa !13
  %16 = sub i32 %10, %15
  %17 = add i32 %16, 1
  ret i32 %17
}

; Function Attrs: inlinehint mustprogress nounwind uwtable
define internal noundef i32 @_ZN6icu_77L14setWeightTrailEjij(i32 noundef %0, i32 noundef %1, i32 noundef %2) #4 {
  %4 = alloca i32, align 4
  %5 = alloca i32, align 4
  %6 = alloca i32, align 4
  store i32 %0, ptr %4, align 4, !tbaa !13
  store i32 %1, ptr %5, align 4, !tbaa !13
  store i32 %2, ptr %6, align 4, !tbaa !13
  %7 = load i32, ptr %5, align 4, !tbaa !13
  %8 = sub nsw i32 4, %7
  %9 = mul nsw i32 8, %8
  store i32 %9, ptr %5, align 4, !tbaa !13
  %10 = load i32, ptr %4, align 4, !tbaa !13
  %11 = load i32, ptr %5, align 4, !tbaa !13
  %12 = shl i32 -256, %11
  %13 = and i32 %10, %12
  %14 = load i32, ptr %6, align 4, !tbaa !13
  %15 = load i32, ptr %5, align 4, !tbaa !13
  %16 = shl i32 %14, %15
  %17 = or i32 %13, %16
  ret i32 %17
}

; Function Attrs: mustprogress uwtable
define void @_ZNK6icu_7716CollationWeights13lengthenRangeERNS0_11WeightRangeE(ptr noundef nonnull align 4 dereferenceable(164) %0, ptr noundef nonnull align 4 dereferenceable(16) %1) #2 align 2 {
  %3 = alloca ptr, align 8
  %4 = alloca ptr, align 8
  %5 = alloca i32, align 4
  store ptr %0, ptr %3, align 8, !tbaa !3
  store ptr %1, ptr %4, align 8, !tbaa !19
  %6 = load ptr, ptr %3, align 8
  call void @llvm.lifetime.start.p0(i64 4, ptr %5) #8
  %7 = load ptr, ptr %4, align 8, !tbaa !19
  %8 = getelementptr inbounds nuw %"struct.icu_77::CollationWeights::WeightRange", ptr %7, i32 0, i32 2
  %9 = load i32, ptr %8, align 4, !tbaa !21
  %10 = add nsw i32 %9, 1
  store i32 %10, ptr %5, align 4, !tbaa !13
  %11 = load ptr, ptr %4, align 8, !tbaa !19
  %12 = getelementptr inbounds nuw %"struct.icu_77::CollationWeights::WeightRange", ptr %11, i32 0, i32 0
  %13 = load i32, ptr %12, align 4, !tbaa !23
  %14 = load i32, ptr %5, align 4, !tbaa !13
  %15 = getelementptr inbounds nuw %"class.icu_77::CollationWeights", ptr %6, i32 0, i32 1
  %16 = load i32, ptr %5, align 4, !tbaa !13
  %17 = sext i32 %16 to i64
  %18 = getelementptr inbounds [5 x i32], ptr %15, i64 0, i64 %17
  %19 = load i32, ptr %18, align 4, !tbaa !13
  %20 = call noundef i32 @_ZN6icu_77L14setWeightTrailEjij(i32 noundef %13, i32 noundef %14, i32 noundef %19)
  %21 = load ptr, ptr %4, align 8, !tbaa !19
  %22 = getelementptr inbounds nuw %"struct.icu_77::CollationWeights::WeightRange", ptr %21, i32 0, i32 0
  store i32 %20, ptr %22, align 4, !tbaa !23
  %23 = load ptr, ptr %4, align 8, !tbaa !19
  %24 = getelementptr inbounds nuw %"struct.icu_77::CollationWeights::WeightRange", ptr %23, i32 0, i32 1
  %25 = load i32, ptr %24, align 4, !tbaa !24
  %26 = load i32, ptr %5, align 4, !tbaa !13
  %27 = getelementptr inbounds nuw %"class.icu_77::CollationWeights", ptr %6, i32 0, i32 2
  %28 = load i32, ptr %5, align 4, !tbaa !13
  %29 = sext i32 %28 to i64
  %30 = getelementptr inbounds [5 x i32], ptr %27, i64 0, i64 %29
  %31 = load i32, ptr %30, align 4, !tbaa !13
  %32 = call noundef i32 @_ZN6icu_77L14setWeightTrailEjij(i32 noundef %25, i32 noundef %26, i32 noundef %31)
  %33 = load ptr, ptr %4, align 8, !tbaa !19
  %34 = getelementptr inbounds nuw %"struct.icu_77::CollationWeights::WeightRange", ptr %33, i32 0, i32 1
  store i32 %32, ptr %34, align 4, !tbaa !24
  %35 = load i32, ptr %5, align 4, !tbaa !13
  %36 = call noundef i32 @_ZNK6icu_7716CollationWeights10countBytesEi(ptr noundef nonnull align 4 dereferenceable(164) %6, i32 noundef %35)
  %37 = load ptr, ptr %4, align 8, !tbaa !19
  %38 = getelementptr inbounds nuw %"struct.icu_77::CollationWeights::WeightRange", ptr %37, i32 0, i32 3
  %39 = load i32, ptr %38, align 4, !tbaa !25
  %40 = mul nsw i32 %39, %36
  store i32 %40, ptr %38, align 4, !tbaa !25
  %41 = load i32, ptr %5, align 4, !tbaa !13
  %42 = load ptr, ptr %4, align 8, !tbaa !19
  %43 = getelementptr inbounds nuw %"struct.icu_77::CollationWeights::WeightRange", ptr %42, i32 0, i32 2
  store i32 %41, ptr %43, align 4, !tbaa !21
  call void @llvm.lifetime.end.p0(i64 4, ptr %5) #8
  ret void
}

; Function Attrs: mustprogress uwtable
define noundef signext i8 @_ZN6icu_7716CollationWeights25allocWeightsInShortRangesEii(ptr noundef nonnull align 4 dereferenceable(164) %0, i32 noundef %1, i32 noundef %2) #2 align 2 {
  %4 = alloca i8, align 1
  %5 = alloca ptr, align 8
  %6 = alloca i32, align 4
  %7 = alloca i32, align 4
  %8 = alloca i32, align 4
  %9 = alloca i32, align 4
  %10 = alloca i32, align 4
  store ptr %0, ptr %5, align 8, !tbaa !3
  store i32 %1, ptr %6, align 4, !tbaa !13
  store i32 %2, ptr %7, align 4, !tbaa !13
  %11 = load ptr, ptr %5, align 8
  call void @llvm.lifetime.start.p0(i64 4, ptr %8) #8
  store i32 0, ptr %8, align 4, !tbaa !13
  br label %12

12:                                               ; preds = %77, %3
  %13 = load i32, ptr %8, align 4, !tbaa !13
  %14 = getelementptr inbounds nuw %"class.icu_77::CollationWeights", ptr %11, i32 0, i32 5
  %15 = load i32, ptr %14, align 4, !tbaa !12
  %16 = icmp slt i32 %13, %15
  br i1 %16, label %17, label %27

17:                                               ; preds = %12
  %18 = getelementptr inbounds nuw %"class.icu_77::CollationWeights", ptr %11, i32 0, i32 3
  %19 = load i32, ptr %8, align 4, !tbaa !13
  %20 = sext i32 %19 to i64
  %21 = getelementptr inbounds [7 x %"struct.icu_77::CollationWeights::WeightRange"], ptr %18, i64 0, i64 %20
  %22 = getelementptr inbounds nuw %"struct.icu_77::CollationWeights::WeightRange", ptr %21, i32 0, i32 2
  %23 = load i32, ptr %22, align 4, !tbaa !21
  %24 = load i32, ptr %7, align 4, !tbaa !13
  %25 = add nsw i32 %24, 1
  %26 = icmp sle i32 %23, %25
  br label %27

27:                                               ; preds = %17, %12
  %28 = phi i1 [ false, %12 ], [ %26, %17 ]
  br i1 %28, label %30, label %29

29:                                               ; preds = %27
  store i32 2, ptr %9, align 4
  br label %80

30:                                               ; preds = %27
  %31 = load i32, ptr %6, align 4, !tbaa !13
  %32 = getelementptr inbounds nuw %"class.icu_77::CollationWeights", ptr %11, i32 0, i32 3
  %33 = load i32, ptr %8, align 4, !tbaa !13
  %34 = sext i32 %33 to i64
  %35 = getelementptr inbounds [7 x %"struct.icu_77::CollationWeights::WeightRange"], ptr %32, i64 0, i64 %34
  %36 = getelementptr inbounds nuw %"struct.icu_77::CollationWeights::WeightRange", ptr %35, i32 0, i32 3
  %37 = load i32, ptr %36, align 4, !tbaa !25
  %38 = icmp sle i32 %31, %37
  br i1 %38, label %39, label %68

39:                                               ; preds = %30
  %40 = getelementptr inbounds nuw %"class.icu_77::CollationWeights", ptr %11, i32 0, i32 3
  %41 = load i32, ptr %8, align 4, !tbaa !13
  %42 = sext i32 %41 to i64
  %43 = getelementptr inbounds [7 x %"struct.icu_77::CollationWeights::WeightRange"], ptr %40, i64 0, i64 %42
  %44 = getelementptr inbounds nuw %"struct.icu_77::CollationWeights::WeightRange", ptr %43, i32 0, i32 2
  %45 = load i32, ptr %44, align 4, !tbaa !21
  %46 = load i32, ptr %7, align 4, !tbaa !13
  %47 = icmp sgt i32 %45, %46
  br i1 %47, label %48, label %55

48:                                               ; preds = %39
  %49 = load i32, ptr %6, align 4, !tbaa !13
  %50 = getelementptr inbounds nuw %"class.icu_77::CollationWeights", ptr %11, i32 0, i32 3
  %51 = load i32, ptr %8, align 4, !tbaa !13
  %52 = sext i32 %51 to i64
  %53 = getelementptr inbounds [7 x %"struct.icu_77::CollationWeights::WeightRange"], ptr %50, i64 0, i64 %52
  %54 = getelementptr inbounds nuw %"struct.icu_77::CollationWeights::WeightRange", ptr %53, i32 0, i32 3
  store i32 %49, ptr %54, align 4, !tbaa !25
  br label %55

55:                                               ; preds = %48, %39
  %56 = load i32, ptr %8, align 4, !tbaa !13
  %57 = add nsw i32 %56, 1
  %58 = getelementptr inbounds nuw %"class.icu_77::CollationWeights", ptr %11, i32 0, i32 5
  store i32 %57, ptr %58, align 4, !tbaa !12
  %59 = getelementptr inbounds nuw %"class.icu_77::CollationWeights", ptr %11, i32 0, i32 5
  %60 = load i32, ptr %59, align 4, !tbaa !12
  %61 = icmp sgt i32 %60, 1
  br i1 %61, label %62, label %67

62:                                               ; preds = %55
  call void @llvm.lifetime.start.p0(i64 4, ptr %10) #8
  store i32 0, ptr %10, align 4, !tbaa !31
  %63 = getelementptr inbounds nuw %"class.icu_77::CollationWeights", ptr %11, i32 0, i32 3
  %64 = getelementptr inbounds [7 x %"struct.icu_77::CollationWeights::WeightRange"], ptr %63, i64 0, i64 0
  %65 = getelementptr inbounds nuw %"class.icu_77::CollationWeights", ptr %11, i32 0, i32 5
  %66 = load i32, ptr %65, align 4, !tbaa !12
  call void @uprv_sortArray_77(ptr noundef %64, i32 noundef %66, i32 noundef 16, ptr noundef @_ZN6icu_77L13compareRangesEPKvS1_S1_, ptr noundef null, i8 noundef signext 0, ptr noundef %10)
  call void @llvm.lifetime.end.p0(i64 4, ptr %10) #8
  br label %67

67:                                               ; preds = %62, %55
  store i8 1, ptr %4, align 1
  store i32 1, ptr %9, align 4
  br label %80

68:                                               ; preds = %30
  %69 = getelementptr inbounds nuw %"class.icu_77::CollationWeights", ptr %11, i32 0, i32 3
  %70 = load i32, ptr %8, align 4, !tbaa !13
  %71 = sext i32 %70 to i64
  %72 = getelementptr inbounds [7 x %"struct.icu_77::CollationWeights::WeightRange"], ptr %69, i64 0, i64 %71
  %73 = getelementptr inbounds nuw %"struct.icu_77::CollationWeights::WeightRange", ptr %72, i32 0, i32 3
  %74 = load i32, ptr %73, align 4, !tbaa !25
  %75 = load i32, ptr %6, align 4, !tbaa !13
  %76 = sub nsw i32 %75, %74
  store i32 %76, ptr %6, align 4, !tbaa !13
  br label %77

77:                                               ; preds = %68
  %78 = load i32, ptr %8, align 4, !tbaa !13
  %79 = add nsw i32 %78, 1
  store i32 %79, ptr %8, align 4, !tbaa !13
  br label %12, !llvm.loop !33

80:                                               ; preds = %67, %29
  call void @llvm.lifetime.end.p0(i64 4, ptr %8) #8
  %81 = load i32, ptr %9, align 4
  switch i32 %81, label %85 [
    i32 2, label %82
    i32 1, label %83
  ]

82:                                               ; preds = %80
  store i8 0, ptr %4, align 1
  br label %83

83:                                               ; preds = %82, %80
  %84 = load i8, ptr %4, align 1
  ret i8 %84

85:                                               ; preds = %80
  unreachable
}

; Function Attrs: mustprogress uwtable
define noundef signext i8 @_ZN6icu_7716CollationWeights12allocWeightsEjji(ptr noundef nonnull align 4 dereferenceable(164) %0, i32 noundef %1, i32 noundef %2, i32 noundef %3) #2 align 2 {
  %5 = alloca i8, align 1
  %6 = alloca ptr, align 8
  %7 = alloca i32, align 4
  %8 = alloca i32, align 4
  %9 = alloca i32, align 4
  %10 = alloca i32, align 4
  %11 = alloca i32, align 4
  %12 = alloca i32, align 4
  store ptr %0, ptr %6, align 8, !tbaa !3
  store i32 %1, ptr %7, align 4, !tbaa !13
  store i32 %2, ptr %8, align 4, !tbaa !13
  store i32 %3, ptr %9, align 4, !tbaa !13
  %13 = load ptr, ptr %6, align 8
  %14 = load i32, ptr %7, align 4, !tbaa !13
  %15 = load i32, ptr %8, align 4, !tbaa !13
  %16 = call noundef signext i8 @_ZN6icu_7716CollationWeights15getWeightRangesEjj(ptr noundef nonnull align 4 dereferenceable(164) %13, i32 noundef %14, i32 noundef %15)
  %17 = icmp ne i8 %16, 0
  br i1 %17, label %19, label %18

18:                                               ; preds = %4
  store i8 0, ptr %5, align 1
  br label %72

19:                                               ; preds = %4
  br label %20

20:                                               ; preds = %69, %19
  call void @llvm.lifetime.start.p0(i64 4, ptr %10) #8
  %21 = getelementptr inbounds nuw %"class.icu_77::CollationWeights", ptr %13, i32 0, i32 3
  %22 = getelementptr inbounds [7 x %"struct.icu_77::CollationWeights::WeightRange"], ptr %21, i64 0, i64 0
  %23 = getelementptr inbounds nuw %"struct.icu_77::CollationWeights::WeightRange", ptr %22, i32 0, i32 2
  %24 = load i32, ptr %23, align 4, !tbaa !21
  store i32 %24, ptr %10, align 4, !tbaa !13
  %25 = load i32, ptr %9, align 4, !tbaa !13
  %26 = load i32, ptr %10, align 4, !tbaa !13
  %27 = call noundef signext i8 @_ZN6icu_7716CollationWeights25allocWeightsInShortRangesEii(ptr noundef nonnull align 4 dereferenceable(164) %13, i32 noundef %25, i32 noundef %26)
  %28 = icmp ne i8 %27, 0
  br i1 %28, label %29, label %30

29:                                               ; preds = %20
  store i32 2, ptr %11, align 4
  br label %67

30:                                               ; preds = %20
  %31 = load i32, ptr %10, align 4, !tbaa !13
  %32 = icmp eq i32 %31, 4
  br i1 %32, label %33, label %34

33:                                               ; preds = %30
  store i8 0, ptr %5, align 1
  store i32 1, ptr %11, align 4
  br label %67

34:                                               ; preds = %30
  %35 = load i32, ptr %9, align 4, !tbaa !13
  %36 = load i32, ptr %10, align 4, !tbaa !13
  %37 = call noundef signext i8 @_ZN6icu_7716CollationWeights29allocWeightsInMinLengthRangesEii(ptr noundef nonnull align 4 dereferenceable(164) %13, i32 noundef %35, i32 noundef %36)
  %38 = icmp ne i8 %37, 0
  br i1 %38, label %39, label %40

39:                                               ; preds = %34
  store i32 2, ptr %11, align 4
  br label %67

40:                                               ; preds = %34
  call void @llvm.lifetime.start.p0(i64 4, ptr %12) #8
  store i32 0, ptr %12, align 4, !tbaa !13
  br label %41

41:                                               ; preds = %63, %40
  %42 = load i32, ptr %12, align 4, !tbaa !13
  %43 = getelementptr inbounds nuw %"class.icu_77::CollationWeights", ptr %13, i32 0, i32 5
  %44 = load i32, ptr %43, align 4, !tbaa !12
  %45 = icmp slt i32 %42, %44
  br i1 %45, label %46, label %55

46:                                               ; preds = %41
  %47 = getelementptr inbounds nuw %"class.icu_77::CollationWeights", ptr %13, i32 0, i32 3
  %48 = load i32, ptr %12, align 4, !tbaa !13
  %49 = sext i32 %48 to i64
  %50 = getelementptr inbounds [7 x %"struct.icu_77::CollationWeights::WeightRange"], ptr %47, i64 0, i64 %49
  %51 = getelementptr inbounds nuw %"struct.icu_77::CollationWeights::WeightRange", ptr %50, i32 0, i32 2
  %52 = load i32, ptr %51, align 4, !tbaa !21
  %53 = load i32, ptr %10, align 4, !tbaa !13
  %54 = icmp eq i32 %52, %53
  br label %55

55:                                               ; preds = %46, %41
  %56 = phi i1 [ false, %41 ], [ %54, %46 ]
  br i1 %56, label %58, label %57

57:                                               ; preds = %55
  store i32 4, ptr %11, align 4
  call void @llvm.lifetime.end.p0(i64 4, ptr %12) #8
  br label %66

58:                                               ; preds = %55
  %59 = getelementptr inbounds nuw %"class.icu_77::CollationWeights", ptr %13, i32 0, i32 3
  %60 = load i32, ptr %12, align 4, !tbaa !13
  %61 = sext i32 %60 to i64
  %62 = getelementptr inbounds [7 x %"struct.icu_77::CollationWeights::WeightRange"], ptr %59, i64 0, i64 %61
  call void @_ZNK6icu_7716CollationWeights13lengthenRangeERNS0_11WeightRangeE(ptr noundef nonnull align 4 dereferenceable(164) %13, ptr noundef nonnull align 4 dereferenceable(16) %62)
  br label %63

63:                                               ; preds = %58
  %64 = load i32, ptr %12, align 4, !tbaa !13
  %65 = add nsw i32 %64, 1
  store i32 %65, ptr %12, align 4, !tbaa !13
  br label %41, !llvm.loop !37

66:                                               ; preds = %57
  store i32 0, ptr %11, align 4
  br label %67

67:                                               ; preds = %66, %39, %33, %29
  call void @llvm.lifetime.end.p0(i64 4, ptr %10) #8
  %68 = load i32, ptr %11, align 4
  switch i32 %68, label %74 [
    i32 0, label %69
    i32 2, label %70
    i32 1, label %72
  ]

69:                                               ; preds = %67
  br label %20, !llvm.loop !38

70:                                               ; preds = %67
  %71 = getelementptr inbounds nuw %"class.icu_77::CollationWeights", ptr %13, i32 0, i32 4
  store i32 0, ptr %71, align 4, !tbaa !11
  store i8 1, ptr %5, align 1
  br label %72

72:                                               ; preds = %70, %67, %18
  %73 = load i8, ptr %5, align 1
  ret i8 %73

74:                                               ; preds = %67
  unreachable
}