; Function Attrs: mustprogress uwtable
define noundef signext range(i8 0, 2) i8 @_ZN6icu_7716CollationWeights12allocWeightsEjji(ptr noundef nonnull align 4 dereferenceable(164) %0, i32 noundef %1, i32 noundef %2, i32 noundef %3) local_unnamed_addr #8 align 2 {
  %5 = alloca i32, align 4
  %6 = tail call noundef signext i8 @_ZN6icu_7716CollationWeights15getWeightRangesEjj(ptr noundef nonnull align 4 dereferenceable(164) %0, i32 noundef %1, i32 noundef %2)
  %.not = icmp eq i8 %6, 0
  br i1 %.not, label %.critedge.thread22, label %.preheader24

.preheader24:                                     ; preds = %4
  %7 = getelementptr inbounds nuw i8, ptr %0, i64 44
  %8 = getelementptr inbounds nuw i8, ptr %0, i64 52
  %9 = getelementptr inbounds nuw i8, ptr %0, i64 160
  %10 = getelementptr inbounds nuw i8, ptr %0, i64 4
  %11 = getelementptr inbounds nuw i8, ptr %0, i64 24
  %.pre = load i32, ptr %9, align 4, !tbaa !8
  br label %.critedge

.critedge:                                        ; preds = %.critedge.backedge, %.preheader24
  %12 = phi i32 [ %.pre, %.preheader24 ], [ %36, %.critedge.backedge ]
  %13 = load i32, ptr %8, align 4, !tbaa !14
  %14 = icmp sgt i32 %12, 0
  br i1 %14, label %.lr.ph.i, label %.loopexit

.lr.ph.i:                                         ; preds = %.critedge
  %15 = add nsw i32 %13, 1
  %wide.trip.count.i = zext nneg i32 %12 to i64
  br label %16

16:                                               ; preds = %31, %.lr.ph.i
  %indvars.iv.i = phi i64 [ 0, %.lr.ph.i ], [ %indvars.iv.next.i, %31 ]
  %.01728.i = phi i32 [ %3, %.lr.ph.i ], [ %32, %31 ]
  %17 = getelementptr inbounds nuw [7 x %"struct.icu_77::CollationWeights::WeightRange"], ptr %7, i64 0, i64 %indvars.iv.i
  %18 = getelementptr inbounds nuw i8, ptr %17, i64 8
  %19 = load i32, ptr %18, align 4, !tbaa !14
  %.not.i = icmp sgt i32 %19, %15
  br i1 %.not.i, label %.loopexit, label %20

20:                                               ; preds = %16
  %21 = getelementptr inbounds nuw i8, ptr %17, i64 12
  %22 = load i32, ptr %21, align 4, !tbaa !18
  %.not20.i = icmp sgt i32 %.01728.i, %22
  br i1 %.not20.i, label %31, label %23

23:                                               ; preds = %20
  %24 = trunc nuw nsw i64 %indvars.iv.i to i32
  %25 = icmp sgt i32 %19, %13
  br i1 %25, label %26, label %28

26:                                               ; preds = %23
  %27 = getelementptr inbounds nuw i8, ptr %17, i64 12
  store i32 %.01728.i, ptr %27, align 4, !tbaa !18
  br label %28

28:                                               ; preds = %26, %23
  %29 = add nuw nsw i32 %24, 1
  store i32 %29, ptr %9, align 4, !tbaa !8
  %.not21.i = icmp eq i64 %indvars.iv.i, 0
  br i1 %.not21.i, label %.loopexit25, label %30

30:                                               ; preds = %28
  call void @llvm.lifetime.start.p0(i64 4, ptr nonnull %5) #11
  store i32 0, ptr %5, align 4, !tbaa !24
  call void @uprv_sortArray_77(ptr noundef nonnull %7, i32 noundef %29, i32 noundef 16, ptr noundef nonnull @_ZN6icu_77L13compareRangesEPKvS1_S1_, ptr noundef null, i8 noundef signext 0, ptr noundef nonnull %5)
  call void @llvm.lifetime.end.p0(i64 4, ptr nonnull %5) #11
  br label %.loopexit25

31:                                               ; preds = %20
  %32 = sub nsw i32 %.01728.i, %22
  %indvars.iv.next.i = add nuw nsw i64 %indvars.iv.i, 1
  %exitcond.not.i = icmp eq i64 %indvars.iv.next.i, %wide.trip.count.i
  br i1 %exitcond.not.i, label %.loopexit, label %16, !llvm.loop !26

.loopexit:                                        ; preds = %16, %31, %.critedge
  %33 = icmp eq i32 %13, 4
  br i1 %33, label %.critedge.thread22, label %34

34:                                               ; preds = %.loopexit
  %35 = tail call noundef signext i8 @_ZN6icu_7716CollationWeights29allocWeightsInMinLengthRangesEii(ptr noundef nonnull align 4 dereferenceable(164) %0, i32 noundef %3, i32 noundef %13)
  %.not18 = icmp eq i8 %35, 0
  br i1 %.not18, label %.preheader, label %.loopexit25

.preheader:                                       ; preds = %34
  %36 = load i32, ptr %9, align 4, !tbaa !8
  %37 = icmp sgt i32 %36, 0
  br i1 %37, label %.lr.ph.preheader, label %.critedge.backedge

.critedge.backedge:                               ; preds = %.lr.ph, %49, %.preheader
  br label %.critedge

.lr.ph.preheader:                                 ; preds = %.preheader
  %wide.trip.count = zext nneg i32 %36 to i64
  %38 = add nsw i32 %13, 1
  %39 = sext i32 %38 to i64
  %40 = getelementptr inbounds [5 x i32], ptr %10, i64 0, i64 %39
  %41 = shl i32 %38, 3
  %42 = sub i32 32, %41
  %43 = shl i32 -256, %42
  %44 = getelementptr inbounds [5 x i32], ptr %11, i64 0, i64 %39
  br label %.lr.ph

.lr.ph:                                           ; preds = %.lr.ph.preheader, %49
  %indvars.iv = phi i64 [ 0, %.lr.ph.preheader ], [ %indvars.iv.next, %49 ]
  %45 = getelementptr inbounds nuw [7 x %"struct.icu_77::CollationWeights::WeightRange"], ptr %7, i64 0, i64 %indvars.iv
  %46 = getelementptr inbounds nuw i8, ptr %45, i64 8
  %47 = load i32, ptr %46, align 4, !tbaa !14
  %48 = icmp eq i32 %47, %13
  br i1 %48, label %49, label %.critedge.backedge

49:                                               ; preds = %.lr.ph
  %50 = load i32, ptr %45, align 4, !tbaa !16
  %51 = load i32, ptr %40, align 4, !tbaa !9
  %52 = and i32 %50, %43
  %53 = shl i32 %51, %42
  %54 = or i32 %53, %52
  store i32 %54, ptr %45, align 4, !tbaa !16
  %55 = getelementptr inbounds nuw i8, ptr %45, i64 4
  %56 = load i32, ptr %55, align 4, !tbaa !17
  %57 = load i32, ptr %44, align 4, !tbaa !9
  %58 = and i32 %56, %43
  %59 = shl i32 %57, %42
  %60 = or i32 %59, %58
  store i32 %60, ptr %55, align 4, !tbaa !17
  %61 = load i32, ptr %44, align 4, !tbaa !9
  %62 = load i32, ptr %40, align 4, !tbaa !9
  %63 = add i32 %61, 1
  %64 = sub i32 %63, %62
  %65 = getelementptr inbounds nuw i8, ptr %45, i64 12
  %66 = load i32, ptr %65, align 4, !tbaa !18
  %67 = mul nsw i32 %66, %64
  store i32 %67, ptr %65, align 4, !tbaa !18
  store i32 %38, ptr %46, align 4, !tbaa !14
  %indvars.iv.next = add nuw nsw i64 %indvars.iv, 1
  %exitcond.not = icmp eq i64 %indvars.iv.next, %wide.trip.count
  br i1 %exitcond.not, label %.critedge.backedge, label %.lr.ph, !llvm.loop !29

.loopexit25:                                      ; preds = %34, %28, %30
  %68 = getelementptr inbounds nuw i8, ptr %0, i64 156
  store i32 0, ptr %68, align 4, !tbaa !3
  br label %.critedge.thread22

.critedge.thread22:                               ; preds = %.loopexit, %4, %.loopexit25
  %.015 = phi i8 [ 1, %.loopexit25 ], [ 0, %4 ], [ 0, %.loopexit ]
  ret i8 %.015
}